; Function Attrs: mustprogress uwtable
define hidden noundef zeroext i1 @_ZN6google8protobuf25EncodedDescriptorDatabase10MaybeParseESt4pairIPKviEPNS0_19FileDescriptorProtoE(ptr noundef nonnull readnone align 8 captures(none) dereferenceable(40) %0, ptr %1, i32 %2, ptr noundef %3) local_unnamed_addr #6 align 2 {
  %5 = icmp eq ptr %1, null
  br i1 %5, label %8, label %6

6:                                                ; preds = %4
  %7 = tail call noundef zeroext i1 @_ZN6google8protobuf11MessageLite14ParseFromArrayEPKvi(ptr noundef nonnull align 8 dereferenceable(16) %3, ptr noundef nonnull %1, i32 noundef %2)
  br label %8

8:                                                ; preds = %4, %6
  %.0 = phi i1 [ %7, %6 ], [ false, %4 ]
  ret i1 %.0
}